target datalayout = "e-m:e-p270:32:32-p271:32:32-p272:64:64-i64:64-i128:128-f80:128-n8:16:32:64-S128"
target triple = "x86_64-pc-linux-gnu"

@.str.21 = private unnamed_addr constant [12 x i8] c"gamma value\00", align 1

; Function Attrs: nounwind uwtable
define internal i32 @convert_gamma_value(ptr noalias noundef %0, double noundef %1) #0 {
  %3 = alloca ptr, align 8
  %4 = alloca double, align 8
  store ptr %0, ptr %3, align 8, !tbaa !3
  store double %1, ptr %4, align 8, !tbaa !34
  %5 = load double, ptr %4, align 8, !tbaa !34
  %6 = fcmp ogt double %5, 0.000000e+00
  br i1 %6, label %7, label %13

7:                                                ; preds = %2
  %8 = load double, ptr %4, align 8, !tbaa !34
  %9 = fcmp olt double %8, 1.280000e+02
  br i1 %9, label %10, label %13

10:                                               ; preds = %7
  %11 = load double, ptr %4, align 8, !tbaa !34
  %12 = fmul double %11, 1.000000e+05
  store double %12, ptr %4, align 8, !tbaa !34
  br label %13

13:                                               ; preds = %10, %7, %2
  %14 = load double, ptr %4, align 8, !tbaa !34
  %15 = fadd double %14, 5.000000e-01
  %16 = call double @llvm.floor.f64(double %15)
  store double %16, ptr %4, align 8, !tbaa !34
  %17 = load double, ptr %4, align 8, !tbaa !34
  %18 = fcmp ogt double %17, 0x41DFFFFFFFC00000
  br i1 %18, label %22, label %19

19:                                               ; preds = %13
  %20 = load double, ptr %4, align 8, !tbaa !34
  %21 = fcmp olt double %20, 0xC1DFFFFFFFC00000
  br i1 %21, label %22, label %24

22:                                               ; preds = %19, %13
  %23 = load ptr, ptr %3, align 8, !tbaa !3
  call void @png_fixed_error(ptr noundef %23, ptr noundef @.str.21) #8
  unreachable

24:                                               ; preds = %19
  %25 = load double, ptr %4, align 8, !tbaa !34
  %26 = fptosi double %25 to i32
  ret i32 %26
}

; Function Attrs: nounwind uwtable
define void @png_set_alpha_mode(ptr noalias noundef %0, i32 noundef %1, double noundef %2) #0 {
  %4 = alloca ptr, align 8
  %5 = alloca i32, align 4
  %6 = alloca double, align 8
  store ptr %0, ptr %4, align 8, !tbaa !3
  store i32 %1, ptr %5, align 4, !tbaa !8
  store double %2, ptr %6, align 8, !tbaa !34
  %7 = load ptr, ptr %4, align 8, !tbaa !3
  %8 = load i32, ptr %5, align 4, !tbaa !8
  %9 = load ptr, ptr %4, align 8, !tbaa !3
  %10 = load double, ptr %6, align 8, !tbaa !34
  %11 = call i32 @convert_gamma_value(ptr noundef %9, double noundef %10)
  call void @png_set_alpha_mode_fixed(ptr noundef %7, i32 noundef %8, i32 noundef %11)
  ret void
}